
uut1:	file format mach-o arm64

Disassembly of section __TEXT,__text:

0000000100003668 <_main>:
100003668: ff 83 02 d1 	sub	sp, sp, #160
10000366c: e9 23 03 6d 	stp	d9, d8, [sp, #48]
100003670: fc 6f 04 a9 	stp	x28, x27, [sp, #64]
100003674: fa 67 05 a9 	stp	x26, x25, [sp, #80]
100003678: f8 5f 06 a9 	stp	x24, x23, [sp, #96]
10000367c: f6 57 07 a9 	stp	x22, x21, [sp, #112]
100003680: f4 4f 08 a9 	stp	x20, x19, [sp, #128]
100003684: fd 7b 09 a9 	stp	x29, x30, [sp, #144]
100003688: fd 43 02 91 	add	x29, sp, #144
10000368c: 08 20 00 51 	sub	w8, w0, #8
100003690: 1f 09 00 31 	cmn	w8, #2
100003694: 62 00 00 54 	b.hs	0x1000036a0 <_main+0x38>
100003698: 20 00 80 52 	mov	w0, #1
10000369c: 16 02 00 14 	b	0x100003ef4 <_main+0x88c>
1000036a0: f4 03 01 aa 	mov	x20, x1
1000036a4: f3 03 00 aa 	mov	x19, x0
1000036a8: 20 54 42 a9 	ldp	x0, x21, [x1, #32]
1000036ac: 3c 00 00 b0 	adrp	x28, 0x100008000 <_main+0x58>
1000036b0: 80 07 00 f9 	str	x0, [x28, #8]
1000036b4: 3a 00 00 b0 	adrp	x26, 0x100008000 <_main+0x60>
1000036b8: 55 0f 00 f9 	str	x21, [x26, #24]
1000036bc: 01 00 85 52 	mov	w1, #10240
1000036c0: 61 cd bd 72 	movk	w1, #61035, lsl #16
1000036c4: 29 02 00 94 	bl	0x100003f68 <_strtod+0x100003f68>
1000036c8: f6 03 00 aa 	mov	x22, x0
1000036cc: 37 00 00 b0 	adrp	x23, 0x100008000 <_main+0x78>
1000036d0: e0 0a 00 f9 	str	x0, [x23, #16]
1000036d4: e0 03 15 aa 	mov	x0, x21
1000036d8: 01 00 85 52 	mov	w1, #10240
1000036dc: 61 cd bd 72 	movk	w1, #61035, lsl #16
1000036e0: 22 02 00 94 	bl	0x100003f68 <_strtod+0x100003f68>
1000036e4: 38 00 00 b0 	adrp	x24, 0x100008000 <_main+0x90>
1000036e8: 00 13 00 f9 	str	x0, [x24, #32]
1000036ec: df 0a 00 f1 	cmp	x22, #2
1000036f0: 00 28 42 fa 	ccmp	x0, #2, #0, hs
1000036f4: 62 00 00 54 	b.hs	0x100003700 <_main+0x98>
1000036f8: 40 00 80 52 	mov	w0, #2
1000036fc: fe 01 00 14 	b	0x100003ef4 <_main+0x88c>
100003700: 80 06 40 f9 	ldr	x0, [x20, #8]
100003704: 01 00 80 d2 	mov	x1, #0
100003708: 1b 02 00 94 	bl	0x100003f74 <_strtod+0x100003f74>
10000370c: 3b 00 00 b0 	adrp	x27, 0x100008000 <_main+0xb8>
100003710: 60 17 00 fd 	str	d0, [x27, #40]
100003714: 80 0a 40 f9 	ldr	x0, [x20, #16]
100003718: 01 00 80 d2 	mov	x1, #0
10000371c: 16 02 00 94 	bl	0x100003f74 <_strtod+0x100003f74>
100003720: 36 00 00 b0 	adrp	x22, 0x100008000 <_main+0xcc>
100003724: c0 1a 00 fd 	str	d0, [x22, #48]
100003728: 80 0e 40 f9 	ldr	x0, [x20, #24]
10000372c: 01 00 80 d2 	mov	x1, #0
100003730: 11 02 00 94 	bl	0x100003f74 <_strtod+0x100003f74>
100003734: 28 00 00 b0 	adrp	x8, 0x100008000 <_main+0xe0>
100003738: 00 1d 00 fd 	str	d0, [x8, #56]
10000373c: 29 00 00 b0 	adrp	x9, 0x100008000 <_main+0xe8>
100003740: 7f 1e 00 71 	cmp	w19, #7
100003744: 81 00 00 54 	b.ne	0x100003754 <_main+0xec>
100003748: 88 1a 40 f9 	ldr	x8, [x20, #48]
10000374c: 08 01 40 39 	ldrb	w8, [x8]
100003750: 28 01 00 39 	strb	w8, [x9]
100003754: e8 0a 40 f9 	ldr	x8, [x23, #16]
100003758: 15 13 40 f9 	ldr	x21, [x24, #32]
10000375c: 1f 01 15 eb 	cmp	x8, x21
100003760: e0 07 80 3d 	str	q0, [sp, #16]
100003764: 02 01 00 54 	b.hs	0x100003784 <_main+0x11c>
100003768: f5 0a 00 f9 	str	x21, [x23, #16]
10000376c: 08 13 00 f9 	str	x8, [x24, #32]
100003770: 8a 26 42 a9 	ldp	x10, x9, [x20, #32]
100003774: 89 07 00 f9 	str	x9, [x28, #8]
100003778: 4a 0f 00 f9 	str	x10, [x26, #24]
10000377c: f7 03 08 aa 	mov	x23, x8
100003780: 03 00 00 14 	b	0x10000378c <_main+0x124>
100003784: f7 03 15 aa 	mov	x23, x21
100003788: f5 03 08 aa 	mov	x21, x8
10000378c: b4 06 00 91 	add	x20, x21, #1
100003790: f9 06 00 91 	add	x25, x23, #1
100003794: 88 7e 19 9b 	mul	x8, x20, x25
100003798: 01 f1 7d d3 	lsl	x1, x8, #3
10000379c: 20 00 80 52 	mov	w0, #1
1000037a0: e0 01 00 94 	bl	0x100003f20 <_strtod+0x100003f20>
1000037a4: a0 3b 00 b4 	cbz	x0, 0x100003f18 <_main+0x8b0>
1000037a8: f8 03 00 aa 	mov	x24, x0
1000037ac: 28 00 00 b0 	adrp	x8, 0x100008000 <_main+0x158>
1000037b0: 00 21 00 f9 	str	x0, [x8, #64]
1000037b4: 9f 0a 00 f1 	cmp	x20, #2
1000037b8: f1 07 c0 3d 	ldr	q17, [sp, #16]
1000037bc: 83 06 00 54 	b.lo	0x10000388c <_main+0x224>
1000037c0: bf 0e 00 f1 	cmp	x21, #3
1000037c4: 68 00 00 54 	b.hi	0x1000037d0 <_main+0x168>
1000037c8: 28 00 80 52 	mov	w8, #1
1000037cc: 25 00 00 14 	b	0x100003860 <_main+0x1f8>
1000037d0: a8 f6 7e 92 	and	x8, x21, #0xfffffffffffffffc
1000037d4: e9 03 08 cb 	neg	x9, x8
1000037d8: ea ea 7b d3 	lsl	x10, x23, #5
1000037dc: 4a 81 00 91 	add	x10, x10, #32
1000037e0: 0b 03 80 52 	mov	w11, #24
1000037e4: 0c 03 80 d2 	mov	x12, #24
1000037e8: eb 32 0b 9b 	madd	x11, x23, x11, x12
1000037ec: ec ee 7c d3 	lsl	x12, x23, #4
1000037f0: 8c 41 00 91 	add	x12, x12, #16
1000037f4: ed f2 7d d3 	lsl	x13, x23, #3
1000037f8: ad 21 00 91 	add	x13, x13, #8
1000037fc: 8e 00 80 52 	mov	w14, #4
100003800: ef 03 18 aa 	mov	x15, x24
100003804: d0 0d 00 d1 	sub	x16, x14, #3
100003808: d1 09 00 d1 	sub	x17, x14, #2
10000380c: c0 05 00 d1 	sub	x0, x14, #1
100003810: 00 02 63 9e 	ucvtf	d0, x16
100003814: 21 02 63 9e 	ucvtf	d1, x17
100003818: 02 00 63 9e 	ucvtf	d2, x0
10000381c: c3 01 63 9e 	ucvtf	d3, x14
100003820: 20 0a 60 1e 	fmul	d0, d17, d0
100003824: 21 0a 61 1e 	fmul	d1, d17, d1
100003828: 22 0a 62 1e 	fmul	d2, d17, d2
10000382c: 23 0a 63 1e 	fmul	d3, d17, d3
100003830: e0 69 2d fc 	str	d0, [x15, x13]
100003834: e1 69 2c fc 	str	d1, [x15, x12]
100003838: e2 69 2b fc 	str	d2, [x15, x11]
10000383c: ef 01 0a 8b 	add	x15, x15, x10
100003840: e3 01 00 fd 	str	d3, [x15]
100003844: ce 11 00 91 	add	x14, x14, #4
100003848: 30 01 0e 8b 	add	x16, x9, x14
10000384c: 1f 12 00 f1 	cmp	x16, #4
100003850: a1 fd ff 54 	b.ne	0x100003804 <_main+0x19c>
100003854: bf 02 08 eb 	cmp	x21, x8
100003858: a0 01 00 54 	b.eq	0x10000388c <_main+0x224>
10000385c: 08 01 40 b2 	orr	x8, x8, #0x1
100003860: 09 7d 19 9b 	mul	x9, x8, x25
100003864: 09 0f 09 8b 	add	x9, x24, x9, lsl #3
100003868: ea f2 7d d3 	lsl	x10, x23, #3
10000386c: 4a 21 00 91 	add	x10, x10, #8
100003870: 00 01 63 9e 	ucvtf	d0, x8
100003874: 20 0a 60 1e 	fmul	d0, d17, d0
100003878: 20 01 00 fd 	str	d0, [x9]
10000387c: 08 05 00 91 	add	x8, x8, #1
100003880: 29 01 0a 8b 	add	x9, x9, x10
100003884: 9f 02 08 eb 	cmp	x20, x8
100003888: 41 ff ff 54 	b.ne	0x100003870 <_main+0x208>
10000388c: 3f 0b 00 f1 	cmp	x25, #2
100003890: 63 05 00 54 	b.lo	0x10000393c <_main+0x2d4>
100003894: ff 1e 00 f1 	cmp	x23, #7
100003898: 68 00 00 54 	b.hi	0x1000038a4 <_main+0x23c>
10000389c: 28 00 80 52 	mov	w8, #1
1000038a0: 21 00 00 14 	b	0x100003924 <_main+0x2bc>
1000038a4: e8 f2 7d 92 	and	x8, x23, #0xfffffffffffffff8
1000038a8: 09 00 00 90 	adrp	x9, 0x100003000 <_main+0x240>
1000038ac: 20 e1 c3 3d 	ldr	q0, [x9, #3968]
1000038b0: 09 a3 00 91 	add	x9, x24, #40
1000038b4: 4a 00 80 52 	mov	w10, #2
1000038b8: 41 0d 08 4e 	dup.2d	v1, x10
1000038bc: 8a 00 80 52 	mov	w10, #4
1000038c0: 42 0d 08 4e 	dup.2d	v2, x10
1000038c4: ca 00 80 52 	mov	w10, #6
1000038c8: 43 0d 08 4e 	dup.2d	v3, x10
1000038cc: 0a 01 80 52 	mov	w10, #8
1000038d0: 44 0d 08 4e 	dup.2d	v4, x10
1000038d4: ea 03 08 aa 	mov	x10, x8
1000038d8: 05 84 e1 4e 	add.2d	v5, v0, v1
1000038dc: 06 84 e2 4e 	add.2d	v6, v0, v2
1000038e0: 07 84 e3 4e 	add.2d	v7, v0, v3
1000038e4: 10 d8 61 6e 	ucvtf.2d	v16, v0
1000038e8: a5 d8 61 6e 	ucvtf.2d	v5, v5
1000038ec: c6 d8 61 6e 	ucvtf.2d	v6, v6
1000038f0: e7 d8 61 6e 	ucvtf.2d	v7, v7
1000038f4: 10 92 d1 4f 	fmul.2d	v16, v16, v17[0]
1000038f8: a5 90 d1 4f 	fmul.2d	v5, v5, v17[0]
1000038fc: c6 90 d1 4f 	fmul.2d	v6, v6, v17[0]
100003900: e7 90 d1 4f 	fmul.2d	v7, v7, v17[0]
100003904: 30 15 3f ad 	stp	q16, q5, [x9, #-32]
100003908: 26 1d 82 ac 	stp	q6, q7, [x9], #64
10000390c: 00 84 e4 4e 	add.2d	v0, v0, v4
100003910: 4a 21 00 f1 	subs	x10, x10, #8
100003914: 21 fe ff 54 	b.ne	0x1000038d8 <_main+0x270>
100003918: ff 02 08 eb 	cmp	x23, x8
10000391c: 00 01 00 54 	b.eq	0x10000393c <_main+0x2d4>
100003920: 08 01 40 b2 	orr	x8, x8, #0x1
100003924: 00 01 63 9e 	ucvtf	d0, x8
100003928: 20 0a 60 1e 	fmul	d0, d17, d0
10000392c: 00 7b 28 fc 	str	d0, [x24, x8, lsl #3]
100003930: 08 05 00 91 	add	x8, x8, #1
100003934: 3f 03 08 eb 	cmp	x25, x8
100003938: 61 ff ff 54 	b.ne	0x100003924 <_main+0x2bc>
10000393c: 54 05 00 b4 	cbz	x20, 0x1000039e4 <_main+0x37c>
100003940: 39 05 00 b4 	cbz	x25, 0x1000039e4 <_main+0x37c>
100003944: 09 00 80 d2 	mov	x9, #0
100003948: 88 07 40 f9 	ldr	x8, [x28, #8]
10000394c: 4a 0f 40 f9 	ldr	x10, [x26, #24]
100003950: 60 17 40 fd 	ldr	d0, [x27, #40]
100003954: c1 1a 40 fd 	ldr	d1, [x22, #48]
100003958: ec f2 7d d3 	lsl	x12, x23, #3
10000395c: 8b 21 00 91 	add	x11, x12, #8
100003960: 8c f1 7d d2 	eor	x12, x12, #0xfffffffffffffff8
100003964: ed 03 18 aa 	mov	x13, x24
100003968: 06 00 00 14 	b	0x100003980 <_main+0x318>
10000396c: 2e 05 00 91 	add	x14, x9, #1
100003970: ad 01 0b 8b 	add	x13, x13, x11
100003974: 3f 01 15 eb 	cmp	x9, x21
100003978: e9 03 0e aa 	mov	x9, x14
10000397c: 40 03 00 54 	b.eq	0x1000039e4 <_main+0x37c>
100003980: 69 ff ff b4 	cbz	x9, 0x10000396c <_main+0x304>
100003984: 57 ff ff b4 	cbz	x23, 0x10000396c <_main+0x304>
100003988: 2e 05 00 d1 	sub	x14, x9, #1
10000398c: 6f 7d 09 9b 	mul	x15, x11, x9
100003990: 02 6b 6f fc 	ldr	d2, [x24, x15]
100003994: ef 03 0a aa 	mov	x15, x10
100003998: f0 03 0d aa 	mov	x16, x13
10000399c: f1 03 17 aa 	mov	x17, x23
1000039a0: 00 02 0c 8b 	add	x0, x16, x12
1000039a4: 01 69 6e 38 	ldrb	w1, [x8, x14]
1000039a8: e2 15 40 38 	ldrb	w2, [x15], #1
1000039ac: 3f 00 02 6b 	cmp	w1, w2
1000039b0: 03 0c 61 1e 	fcsel	d3, d0, d1, eq
1000039b4: 04 14 40 6d 	ldp	d4, d5, [x0]
1000039b8: 83 28 63 1e 	fadd	d3, d4, d3
1000039bc: a4 28 71 1e 	fadd	d4, d5, d17
1000039c0: 22 2a 62 1e 	fadd	d2, d17, d2
1000039c4: 80 20 62 1e 	fcmp	d4, d2
1000039c8: 82 cc 62 1e 	fcsel	d2, d4, d2, gt
1000039cc: 60 20 62 1e 	fcmp	d3, d2
1000039d0: 62 cc 62 1e 	fcsel	d2, d3, d2, gt
1000039d4: 02 8e 00 fc 	str	d2, [x16, #8]!
1000039d8: 31 06 00 f1 	subs	x17, x17, #1
1000039dc: 21 fe ff 54 	b.ne	0x1000039a0 <_main+0x338>
1000039e0: e3 ff ff 17 	b	0x10000396c <_main+0x304>
1000039e4: fa 03 16 aa 	mov	x26, x22
1000039e8: ff 17 00 f9 	str	xzr, [sp, #40]
1000039ec: 36 03 15 8b 	add	x22, x25, x21
1000039f0: e0 03 16 aa 	mov	x0, x22
1000039f4: 21 00 80 52 	mov	w1, #1
1000039f8: 4a 01 00 94 	bl	0x100003f20 <_strtod+0x100003f20>
1000039fc: e0 28 00 b4 	cbz	x0, 0x100003f18 <_main+0x8b0>
100003a00: f4 03 00 aa 	mov	x20, x0
100003a04: fc 03 1b aa 	mov	x28, x27
100003a08: e0 03 16 aa 	mov	x0, x22
100003a0c: 21 00 80 52 	mov	w1, #1
100003a10: 44 01 00 94 	bl	0x100003f20 <_strtod+0x100003f20>
100003a14: 20 28 00 b4 	cbz	x0, 0x100003f18 <_main+0x8b0>
100003a18: f6 03 00 aa 	mov	x22, x0
100003a1c: 1b 00 80 d2 	mov	x27, #0
100003a20: 08 e4 00 2f 	movi	d8, #0000000000000000
100003a24: e5 07 c0 3d 	ldr	q5, [sp, #16]
100003a28: 35 06 00 b4 	cbz	x21, 0x100003aec <_main+0x484>
100003a2c: 17 06 00 b4 	cbz	x23, 0x100003aec <_main+0x484>
100003a30: 1b 00 80 d2 	mov	x27, #0
100003a34: 28 00 00 b0 	adrp	x8, 0x100008000 <_main+0x3e0>
100003a38: 08 05 40 f9 	ldr	x8, [x8, #8]
100003a3c: 29 00 00 b0 	adrp	x9, 0x100008000 <_main+0x3e8>
100003a40: 29 0d 40 f9 	ldr	x9, [x9, #24]
100003a44: 80 17 40 fd 	ldr	d0, [x28, #40]
100003a48: 41 1b 40 fd 	ldr	d1, [x26, #48]
100003a4c: aa 06 00 d1 	sub	x10, x21, #1
100003a50: 0b 69 6a 38 	ldrb	w11, [x8, x10]
100003a54: ec 06 00 d1 	sub	x12, x23, #1
100003a58: 2d 69 6c 38 	ldrb	w13, [x9, x12]
100003a5c: 7f 01 0d 6b 	cmp	w11, w13
100003a60: 02 0c 61 1e 	fcsel	d2, d0, d1, eq
100003a64: ae 7e 19 9b 	mul	x14, x21, x25
100003a68: 0e 0f 0e 8b 	add	x14, x24, x14, lsl #3
100003a6c: c3 79 77 fc 	ldr	d3, [x14, x23, lsl #3]
100003a70: c4 79 6c fc 	ldr	d4, [x14, x12, lsl #3]
100003a74: 84 28 65 1e 	fadd	d4, d4, d5
100003a78: 60 20 64 1e 	fcmp	d3, d4
100003a7c: a1 00 00 54 	b.ne	0x100003a90 <_main+0x428>
100003a80: ab 05 80 52 	mov	w11, #45
100003a84: a2 40 60 1e 	fmov	d2, d5
100003a88: ea 03 15 aa 	mov	x10, x21
100003a8c: 0f 00 00 14 	b	0x100003ac8 <_main+0x460>
100003a90: 4e 7d 19 9b 	mul	x14, x10, x25
100003a94: 0e 0f 0e 8b 	add	x14, x24, x14, lsl #3
100003a98: c4 79 77 fc 	ldr	d4, [x14, x23, lsl #3]
100003a9c: a4 28 64 1e 	fadd	d4, d5, d4
100003aa0: 60 20 64 1e 	fcmp	d3, d4
100003aa4: a1 00 00 54 	b.ne	0x100003ab8 <_main+0x450>
100003aa8: ad 05 80 52 	mov	w13, #45
100003aac: a2 40 60 1e 	fmov	d2, d5
100003ab0: ec 03 17 aa 	mov	x12, x23
100003ab4: 05 00 00 14 	b	0x100003ac8 <_main+0x460>
100003ab8: c4 79 6c fc 	ldr	d4, [x14, x12, lsl #3]
100003abc: 44 28 64 1e 	fadd	d4, d2, d4
100003ac0: 60 20 64 1e 	fcmp	d3, d4
100003ac4: e1 00 00 54 	b.ne	0x100003ae0 <_main+0x478>
100003ac8: 8b 6a 3b 38 	strb	w11, [x20, x27]
100003acc: cd 6a 3b 38 	strb	w13, [x22, x27]
100003ad0: 48 28 68 1e 	fadd	d8, d2, d8
100003ad4: e8 17 00 fd 	str	d8, [sp, #40]
100003ad8: f7 03 0c aa 	mov	x23, x12
100003adc: f5 03 0a aa 	mov	x21, x10
100003ae0: 7b 07 00 91 	add	x27, x27, #1
100003ae4: 55 00 00 b4 	cbz	x21, 0x100003aec <_main+0x484>
100003ae8: 37 fb ff b5 	cbnz	x23, 0x100003a4c <_main+0x3e4>
100003aec: 77 02 00 b4 	cbz	x23, 0x100003b38 <_main+0x4d0>
100003af0: 28 00 00 b0 	adrp	x8, 0x100008000 <_main+0x49c>
100003af4: 18 0d 40 f9 	ldr	x24, [x8, #24]
100003af8: 80 02 1b 8b 	add	x0, x20, x27
100003afc: a1 05 80 52 	mov	w1, #45
100003b00: e2 03 17 aa 	mov	x2, x23
100003b04: 10 01 00 94 	bl	0x100003f44 <_strtod+0x100003f44>
100003b08: e0 07 c0 3d 	ldr	q0, [sp, #16]
100003b0c: 08 07 00 d1 	sub	x8, x24, #1
100003b10: 3a 00 00 b0 	adrp	x26, 0x100008000 <_main+0x4bc>
100003b14: 09 69 77 38 	ldrb	w9, [x8, x23]
100003b18: c9 6a 3b 38 	strb	w9, [x22, x27]
100003b1c: 08 28 68 1e 	fadd	d8, d0, d8
100003b20: e8 17 00 fd 	str	d8, [sp, #40]
100003b24: 7b 07 00 91 	add	x27, x27, #1
100003b28: f7 06 00 f1 	subs	x23, x23, #1
100003b2c: 41 ff ff 54 	b.ne	0x100003b14 <_main+0x4ac>
100003b30: 95 00 00 b5 	cbnz	x21, 0x100003b40 <_main+0x4d8>
100003b34: 5c 00 00 14 	b	0x100003ca4 <_main+0x63c>
100003b38: 3a 00 00 b0 	adrp	x26, 0x100008000 <_main+0x4e4>
100003b3c: 55 0b 00 b4 	cbz	x21, 0x100003ca4 <_main+0x63c>
100003b40: 57 07 40 f9 	ldr	x23, [x26, #8]
100003b44: c0 02 1b 8b 	add	x0, x22, x27
100003b48: a1 05 80 52 	mov	w1, #45
100003b4c: e2 03 15 aa 	mov	x2, x21
100003b50: fd 00 00 94 	bl	0x100003f44 <_strtod+0x100003f44>
100003b54: bf 7e 00 f1 	cmp	x21, #31
100003b58: 88 00 00 54 	b.hi	0x100003b68 <_main+0x500>
100003b5c: e8 03 15 aa 	mov	x8, x21
100003b60: e4 07 c0 3d 	ldr	q4, [sp, #16]
100003b64: 48 00 00 14 	b	0x100003c84 <_main+0x61c>
100003b68: e9 a3 00 91 	add	x9, sp, #40
100003b6c: 2a 21 00 91 	add	x10, x9, #8
100003b70: eb 02 15 8b 	add	x11, x23, x21
100003b74: 28 00 00 b0 	adrp	x8, 0x100008000 <_main+0x520>
100003b78: 08 e1 00 91 	add	x8, x8, #56
100003b7c: 0c 21 00 91 	add	x12, x8, #8
100003b80: 3f 01 0c eb 	cmp	x9, x12
100003b84: 40 31 48 fa 	ccmp	x10, x8, #0, lo
100003b88: e8 97 9f 1a 	cset	w8, hi
100003b8c: ff 02 0a eb 	cmp	x23, x10
100003b90: 60 31 49 fa 	ccmp	x11, x9, #0, lo
100003b94: e4 07 c0 3d 	ldr	q4, [sp, #16]
100003b98: 48 07 00 54 	b.hi	0x100003c80 <_main+0x618>
100003b9c: 28 07 00 37 	tbnz	w8, #0, 0x100003c80 <_main+0x618>
100003ba0: a9 ea 7b 92 	and	x9, x21, #0xffffffffffffffe0
100003ba4: a8 12 40 92 	and	x8, x21, #0x1f
100003ba8: 80 04 08 4e 	dup.2d	v0, v4[0]
100003bac: aa 02 17 8b 	add	x10, x21, x23
100003bb0: 4a 41 00 d1 	sub	x10, x10, #16
100003bb4: 6b 03 14 8b 	add	x11, x27, x20
100003bb8: 6b 41 00 91 	add	x11, x11, #16
100003bbc: 01 04 18 5e 	mov	d1, v0[1]
100003bc0: ec 03 09 aa 	mov	x12, x9
100003bc4: 43 89 7f ad 	ldp	q3, q2, [x10, #-16]
100003bc8: 42 08 20 4e 	rev64.16b	v2, v2
100003bcc: 42 40 02 6e 	ext.16b	v2, v2, v2, #8
100003bd0: 63 08 20 4e 	rev64.16b	v3, v3
100003bd4: 63 40 03 6e 	ext.16b	v3, v3, v3, #8
100003bd8: 62 8d 3f ad 	stp	q2, q3, [x11, #-16]
100003bdc: 02 29 60 1e 	fadd	d2, d8, d0
100003be0: 42 28 61 1e 	fadd	d2, d2, d1
100003be4: 42 28 60 1e 	fadd	d2, d2, d0
100003be8: 42 28 61 1e 	fadd	d2, d2, d1
100003bec: 42 28 60 1e 	fadd	d2, d2, d0
100003bf0: 42 28 61 1e 	fadd	d2, d2, d1
100003bf4: 42 28 60 1e 	fadd	d2, d2, d0
100003bf8: 42 28 61 1e 	fadd	d2, d2, d1
100003bfc: 42 28 60 1e 	fadd	d2, d2, d0
100003c00: 42 28 61 1e 	fadd	d2, d2, d1
100003c04: 42 28 60 1e 	fadd	d2, d2, d0
100003c08: 42 28 61 1e 	fadd	d2, d2, d1
100003c0c: 42 28 60 1e 	fadd	d2, d2, d0
100003c10: 42 28 61 1e 	fadd	d2, d2, d1
100003c14: 42 28 60 1e 	fadd	d2, d2, d0
100003c18: 42 28 61 1e 	fadd	d2, d2, d1
100003c1c: 42 28 60 1e 	fadd	d2, d2, d0
100003c20: 42 28 61 1e 	fadd	d2, d2, d1
100003c24: 42 28 60 1e 	fadd	d2, d2, d0
100003c28: 42 28 61 1e 	fadd	d2, d2, d1
100003c2c: 42 28 60 1e 	fadd	d2, d2, d0
100003c30: 42 28 61 1e 	fadd	d2, d2, d1
100003c34: 42 28 60 1e 	fadd	d2, d2, d0
100003c38: 42 28 61 1e 	fadd	d2, d2, d1
100003c3c: 42 28 60 1e 	fadd	d2, d2, d0
100003c40: 42 28 61 1e 	fadd	d2, d2, d1
100003c44: 42 28 60 1e 	fadd	d2, d2, d0
100003c48: 42 28 61 1e 	fadd	d2, d2, d1
100003c4c: 42 28 60 1e 	fadd	d2, d2, d0
100003c50: 42 28 61 1e 	fadd	d2, d2, d1
100003c54: 42 28 60 1e 	fadd	d2, d2, d0
100003c58: 48 28 61 1e 	fadd	d8, d2, d1
100003c5c: 4a 81 00 d1 	sub	x10, x10, #32
100003c60: 6b 81 00 91 	add	x11, x11, #32
100003c64: 8c 81 00 d1 	sub	x12, x12, #32
100003c68: ec fa ff b5 	cbnz	x12, 0x100003bc4 <_main+0x55c>
100003c6c: 7b 03 09 8b 	add	x27, x27, x9
100003c70: e8 17 00 fd 	str	d8, [sp, #40]
100003c74: bf 02 09 eb 	cmp	x21, x9
100003c78: 61 00 00 54 	b.ne	0x100003c84 <_main+0x61c>
100003c7c: 0a 00 00 14 	b	0x100003ca4 <_main+0x63c>
100003c80: e8 03 15 aa 	mov	x8, x21
100003c84: e9 06 00 d1 	sub	x9, x23, #1
100003c88: 2a 69 68 38 	ldrb	w10, [x9, x8]
100003c8c: 8a 6a 3b 38 	strb	w10, [x20, x27]
100003c90: 88 28 68 1e 	fadd	d8, d4, d8
100003c94: e8 17 00 fd 	str	d8, [sp, #40]
100003c98: 7b 07 00 91 	add	x27, x27, #1
100003c9c: 08 05 00 f1 	subs	x8, x8, #1
100003ca0: 41 ff ff 54 	b.ne	0x100003c88 <_main+0x620>
100003ca4: 78 07 00 91 	add	x24, x27, #1
100003ca8: e0 03 18 aa 	mov	x0, x24
100003cac: 21 00 80 52 	mov	w1, #1
100003cb0: 9c 00 00 94 	bl	0x100003f20 <_strtod+0x100003f20>
100003cb4: 20 13 00 b4 	cbz	x0, 0x100003f18 <_main+0x8b0>
100003cb8: f5 03 00 aa 	mov	x21, x0
100003cbc: e0 03 18 aa 	mov	x0, x24
100003cc0: 21 00 80 52 	mov	w1, #1
100003cc4: 97 00 00 94 	bl	0x100003f20 <_strtod+0x100003f20>
100003cc8: 80 12 00 b4 	cbz	x0, 0x100003f18 <_main+0x8b0>
100003ccc: f7 03 00 aa 	mov	x23, x0
100003cd0: e0 03 18 aa 	mov	x0, x24
100003cd4: 21 00 80 52 	mov	w1, #1
100003cd8: 92 00 00 94 	bl	0x100003f20 <_strtod+0x100003f20>
100003cdc: e0 11 00 b4 	cbz	x0, 0x100003f18 <_main+0x8b0>
100003ce0: f8 03 00 aa 	mov	x24, x0
100003ce4: bb 0c 00 b4 	cbz	x27, 0x100003e78 <_main+0x810>
100003ce8: 28 00 00 b0 	adrp	x8, 0x100008000 <_main+0x694>
100003cec: 08 01 40 39 	ldrb	w8, [x8]
100003cf0: 7f 23 00 f1 	cmp	x27, #8
100003cf4: 62 00 00 54 	b.hs	0x100003d00 <_main+0x698>
100003cf8: 09 00 80 d2 	mov	x9, #0
100003cfc: 4a 00 00 14 	b	0x100003e24 <_main+0x7bc>
100003d00: 7f 83 00 f1 	cmp	x27, #32
100003d04: 62 00 00 54 	b.hs	0x100003d10 <_main+0x6a8>
100003d08: 09 00 80 d2 	mov	x9, #0
100003d0c: 27 00 00 14 	b	0x100003da8 <_main+0x740>
100003d10: 69 eb 7b 92 	and	x9, x27, #0xffffffffffffffe0
100003d14: 00 0d 01 4e 	dup.16b	v0, w8
100003d18: 6b 43 00 d1 	sub	x11, x27, #16
100003d1c: ca 02 0b 8b 	add	x10, x22, x11
100003d20: 8b 02 0b 8b 	add	x11, x20, x11
100003d24: 0c 43 00 91 	add	x12, x24, #16
100003d28: ad 42 00 91 	add	x13, x21, #16
100003d2c: ee 42 00 91 	add	x14, x23, #16
100003d30: 01 e4 01 4f 	movi.16b	v1, #32
100003d34: ef 03 09 aa 	mov	x15, x9
100003d38: 63 89 7f ad 	ldp	q3, q2, [x11, #-16]
100003d3c: 42 08 20 4e 	rev64.16b	v2, v2
100003d40: 42 40 02 6e 	ext.16b	v2, v2, v2, #8
100003d44: 63 08 20 4e 	rev64.16b	v3, v3
100003d48: 63 40 03 6e 	ext.16b	v3, v3, v3, #8
100003d4c: a2 8d 3f ad 	stp	q2, q3, [x13, #-16]
100003d50: 45 91 7f ad 	ldp	q5, q4, [x10, #-16]
100003d54: 84 08 20 4e 	rev64.16b	v4, v4
100003d58: 84 40 04 6e 	ext.16b	v4, v4, v4, #8
100003d5c: a5 08 20 4e 	rev64.16b	v5, v5
100003d60: a5 40 05 6e 	ext.16b	v5, v5, v5, #8
100003d64: c4 95 3f ad 	stp	q4, q5, [x14, #-16]
100003d68: 42 8c 24 6e 	cmeq.16b	v2, v2, v4
100003d6c: 63 8c 25 6e 	cmeq.16b	v3, v3, v5
100003d70: 02 1c 61 6e 	bsl.16b	v2, v0, v1
100003d74: 03 1c 61 6e 	bsl.16b	v3, v0, v1
100003d78: 4a 81 00 d1 	sub	x10, x10, #32
100003d7c: 6b 81 00 d1 	sub	x11, x11, #32
100003d80: 82 8d 3f ad 	stp	q2, q3, [x12, #-16]
100003d84: 8c 81 00 91 	add	x12, x12, #32
100003d88: ad 81 00 91 	add	x13, x13, #32
100003d8c: ce 81 00 91 	add	x14, x14, #32
100003d90: ef 81 00 d1 	sub	x15, x15, #32
100003d94: 2f fd ff b5 	cbnz	x15, 0x100003d38 <_main+0x6d0>
100003d98: 7f 03 09 eb 	cmp	x27, x9
100003d9c: e0 06 00 54 	b.eq	0x100003e78 <_main+0x810>
100003da0: 7f 07 7d f2 	tst	x27, #0x18
100003da4: 00 04 00 54 	b.eq	0x100003e24 <_main+0x7bc>
100003da8: 6a f3 7d 92 	and	x10, x27, #0xfffffffffffffff8
100003dac: 00 0d 01 0e 	dup.8b	v0, w8
100003db0: eb 00 80 92 	mov	x11, #-8
100003db4: 6c 01 09 cb 	sub	x12, x11, x9
100003db8: cb 02 0c 8b 	add	x11, x22, x12
100003dbc: 8c 02 0c 8b 	add	x12, x20, x12
100003dc0: 01 e4 01 0f 	movi.8b	v1, #32
100003dc4: ed 03 0a aa 	mov	x13, x10
100003dc8: ee 03 18 aa 	mov	x14, x24
100003dcc: ef 03 17 aa 	mov	x15, x23
100003dd0: f0 03 15 aa 	mov	x16, x21
100003dd4: 82 69 7b fc 	ldr	d2, [x12, x27]
100003dd8: 42 08 20 0e 	rev64.8b	v2, v2
100003ddc: 02 6a 29 fc 	str	d2, [x16, x9]
100003de0: 63 69 7b fc 	ldr	d3, [x11, x27]
100003de4: 63 08 20 0e 	rev64.8b	v3, v3
100003de8: e3 69 29 fc 	str	d3, [x15, x9]
100003dec: 42 8c 23 2e 	cmeq.8b	v2, v2, v3
100003df0: 02 1c 61 2e 	bsl.8b	v2, v0, v1
100003df4: c2 69 29 fc 	str	d2, [x14, x9]
100003df8: 6b 21 00 d1 	sub	x11, x11, #8
100003dfc: 8c 21 00 d1 	sub	x12, x12, #8
100003e00: 10 22 00 91 	add	x16, x16, #8
100003e04: ef 21 00 91 	add	x15, x15, #8
100003e08: ce 21 00 91 	add	x14, x14, #8
100003e0c: ad 21 00 d1 	sub	x13, x13, #8
100003e10: 3f 01 0d eb 	cmp	x9, x13
100003e14: 01 fe ff 54 	b.ne	0x100003dd4 <_main+0x76c>
100003e18: e9 03 0a aa 	mov	x9, x10
100003e1c: 7f 03 0a eb 	cmp	x27, x10
100003e20: c0 02 00 54 	b.eq	0x100003e78 <_main+0x810>
100003e24: eb 03 29 aa 	mvn	x11, x9
100003e28: ca 02 0b 8b 	add	x10, x22, x11
100003e2c: 8b 02 0b 8b 	add	x11, x20, x11
100003e30: 0c 04 80 52 	mov	w12, #32
100003e34: ed 03 15 aa 	mov	x13, x21
100003e38: ee 03 17 aa 	mov	x14, x23
100003e3c: ef 03 18 aa 	mov	x15, x24
100003e40: f0 03 1b aa 	mov	x16, x27
100003e44: 71 69 70 38 	ldrb	w17, [x11, x16]
100003e48: b1 69 29 38 	strb	w17, [x13, x9]
100003e4c: 40 69 70 38 	ldrb	w0, [x10, x16]
100003e50: c0 69 29 38 	strb	w0, [x14, x9]
100003e54: 3f 02 00 6b 	cmp	w17, w0
100003e58: 11 01 8c 1a 	csel	w17, w8, w12, eq
100003e5c: f1 69 29 38 	strb	w17, [x15, x9]
100003e60: 10 06 00 d1 	sub	x16, x16, #1
100003e64: ef 05 00 91 	add	x15, x15, #1
100003e68: ce 05 00 91 	add	x14, x14, #1
100003e6c: ad 05 00 91 	add	x13, x13, #1
100003e70: 3f 01 10 eb 	cmp	x9, x16
100003e74: 81 fe ff 54 	b.ne	0x100003e44 <_main+0x7dc>
100003e78: e0 03 14 aa 	mov	x0, x20
100003e7c: 2f 00 00 94 	bl	0x100003f38 <_strtod+0x100003f38>
100003e80: e0 03 16 aa 	mov	x0, x22
100003e84: 2d 00 00 94 	bl	0x100003f38 <_strtod+0x100003f38>
100003e88: fb 03 00 f9 	str	x27, [sp]
100003e8c: 00 00 00 90 	adrp	x0, 0x100003000 <_main+0x824>
100003e90: 00 40 3e 91 	add	x0, x0, #3984
100003e94: 2f 00 00 94 	bl	0x100003f50 <_strtod+0x100003f50>
100003e98: e0 17 40 fd 	ldr	d0, [sp, #40]
100003e9c: e0 03 00 fd 	str	d0, [sp]
100003ea0: 00 00 00 90 	adrp	x0, 0x100003000 <_main+0x838>
100003ea4: 00 54 3e 91 	add	x0, x0, #3989
100003ea8: 2a 00 00 94 	bl	0x100003f50 <_strtod+0x100003f50>
100003eac: e0 03 15 aa 	mov	x0, x21
100003eb0: 2b 00 00 94 	bl	0x100003f5c <_strtod+0x100003f5c>
100003eb4: 7f 1e 00 71 	cmp	w19, #7
100003eb8: 61 00 00 54 	b.ne	0x100003ec4 <_main+0x85c>
100003ebc: e0 03 18 aa 	mov	x0, x24
100003ec0: 27 00 00 94 	bl	0x100003f5c <_strtod+0x100003f5c>
100003ec4: e0 03 17 aa 	mov	x0, x23
100003ec8: 25 00 00 94 	bl	0x100003f5c <_strtod+0x100003f5c>
100003ecc: 28 00 00 b0 	adrp	x8, 0x100008000 <_main+0x878>
100003ed0: 00 21 40 f9 	ldr	x0, [x8, #64]
100003ed4: 19 00 00 94 	bl	0x100003f38 <_strtod+0x100003f38>
100003ed8: e0 03 15 aa 	mov	x0, x21
100003edc: 17 00 00 94 	bl	0x100003f38 <_strtod+0x100003f38>
100003ee0: e0 03 17 aa 	mov	x0, x23
100003ee4: 15 00 00 94 	bl	0x100003f38 <_strtod+0x100003f38>
100003ee8: e0 03 18 aa 	mov	x0, x24
100003eec: 13 00 00 94 	bl	0x100003f38 <_strtod+0x100003f38>
100003ef0: 00 00 80 52 	mov	w0, #0
100003ef4: fd 7b 49 a9 	ldp	x29, x30, [sp, #144]
100003ef8: f4 4f 48 a9 	ldp	x20, x19, [sp, #128]
100003efc: f6 57 47 a9 	ldp	x22, x21, [sp, #112]
100003f00: f8 5f 46 a9 	ldp	x24, x23, [sp, #96]
100003f04: fa 67 45 a9 	ldp	x26, x25, [sp, #80]
100003f08: fc 6f 44 a9 	ldp	x28, x27, [sp, #64]
100003f0c: e9 23 43 6d 	ldp	d9, d8, [sp, #48]
100003f10: ff 83 02 91 	add	sp, sp, #160
100003f14: c0 03 5f d6 	ret
100003f18: 20 00 80 52 	mov	w0, #1
100003f1c: 04 00 00 94 	bl	0x100003f2c <_strtod+0x100003f2c>

Disassembly of section __TEXT,__stubs:

0000000100003f20 <__stubs>:
100003f20: 10 00 00 b0 	adrp	x16, 0x100004000 <__stubs+0x4>
100003f24: 10 02 40 f9 	ldr	x16, [x16]
100003f28: 00 02 1f d6 	br	x16
100003f2c: 10 00 00 b0 	adrp	x16, 0x100004000 <__stubs+0x10>
100003f30: 10 06 40 f9 	ldr	x16, [x16, #8]
100003f34: 00 02 1f d6 	br	x16
100003f38: 10 00 00 b0 	adrp	x16, 0x100004000 <__stubs+0x1c>
100003f3c: 10 0a 40 f9 	ldr	x16, [x16, #16]
100003f40: 00 02 1f d6 	br	x16
100003f44: 10 00 00 b0 	adrp	x16, 0x100004000 <__stubs+0x28>
100003f48: 10 0e 40 f9 	ldr	x16, [x16, #24]
100003f4c: 00 02 1f d6 	br	x16
100003f50: 10 00 00 b0 	adrp	x16, 0x100004000 <__stubs+0x34>
100003f54: 10 12 40 f9 	ldr	x16, [x16, #32]
100003f58: 00 02 1f d6 	br	x16
100003f5c: 10 00 00 b0 	adrp	x16, 0x100004000 <__stubs+0x40>
100003f60: 10 16 40 f9 	ldr	x16, [x16, #40]
100003f64: 00 02 1f d6 	br	x16
100003f68: 10 00 00 b0 	adrp	x16, 0x100004000 <__stubs+0x4c>
100003f6c: 10 1a 40 f9 	ldr	x16, [x16, #48]
100003f70: 00 02 1f d6 	br	x16
100003f74: 10 00 00 b0 	adrp	x16, 0x100004000 <__stubs+0x58>
100003f78: 10 1e 40 f9 	ldr	x16, [x16, #56]
100003f7c: 00 02 1f d6 	br	x16
