
uut3:	file format mach-o arm64

Disassembly of section __TEXT,__text:

000000010000355c <_main>:
10000355c: ff 83 03 d1 	sub	sp, sp, #224
100003560: e9 23 07 6d 	stp	d9, d8, [sp, #112]
100003564: fc 6f 08 a9 	stp	x28, x27, [sp, #128]
100003568: fa 67 09 a9 	stp	x26, x25, [sp, #144]
10000356c: f8 5f 0a a9 	stp	x24, x23, [sp, #160]
100003570: f6 57 0b a9 	stp	x22, x21, [sp, #176]
100003574: f4 4f 0c a9 	stp	x20, x19, [sp, #192]
100003578: fd 7b 0d a9 	stp	x29, x30, [sp, #208]
10000357c: fd 43 03 91 	add	x29, sp, #208
100003580: 08 20 00 51 	sub	w8, w0, #8
100003584: 1f 09 00 31 	cmn	w8, #2
100003588: 62 00 00 54 	b.hs	0x100003594 <_main+0x38>
10000358c: 20 00 80 52 	mov	w0, #1
100003590: 59 02 00 14 	b	0x100003ef4 <_main+0x998>
100003594: f5 03 01 aa 	mov	x21, x1
100003598: f8 03 00 aa 	mov	x24, x0
10000359c: 20 50 42 a9 	ldp	x0, x20, [x1, #32]
1000035a0: 39 00 00 b0 	adrp	x25, 0x100008000 <_main+0x58>
1000035a4: 20 07 00 f9 	str	x0, [x25, #8]
1000035a8: 3a 00 00 b0 	adrp	x26, 0x100008000 <_main+0x60>
1000035ac: 54 0f 00 f9 	str	x20, [x26, #24]
1000035b0: 01 00 85 52 	mov	w1, #10240
1000035b4: 61 cd bd 72 	movk	w1, #61035, lsl #16
1000035b8: 6c 02 00 94 	bl	0x100003f68 <_strtod+0x100003f68>
1000035bc: f6 03 00 aa 	mov	x22, x0
1000035c0: 33 00 00 b0 	adrp	x19, 0x100008000 <_main+0x78>
1000035c4: 60 0a 00 f9 	str	x0, [x19, #16]
1000035c8: e0 03 14 aa 	mov	x0, x20
1000035cc: 01 00 85 52 	mov	w1, #10240
1000035d0: 61 cd bd 72 	movk	w1, #61035, lsl #16
1000035d4: 65 02 00 94 	bl	0x100003f68 <_strtod+0x100003f68>
1000035d8: 37 00 00 b0 	adrp	x23, 0x100008000 <_main+0x90>
1000035dc: e0 12 00 f9 	str	x0, [x23, #32]
1000035e0: df 0a 00 f1 	cmp	x22, #2
1000035e4: 00 28 42 fa 	ccmp	x0, #2, #0, hs
1000035e8: 62 00 00 54 	b.hs	0x1000035f4 <_main+0x98>
1000035ec: 40 00 80 52 	mov	w0, #2
1000035f0: 41 02 00 14 	b	0x100003ef4 <_main+0x998>
1000035f4: a0 06 40 f9 	ldr	x0, [x21, #8]
1000035f8: 01 00 80 d2 	mov	x1, #0
1000035fc: 5e 02 00 94 	bl	0x100003f74 <_strtod+0x100003f74>
100003600: 28 00 00 b0 	adrp	x8, 0x100008000 <_main+0xb8>
100003604: 00 15 00 fd 	str	d0, [x8, #40]
100003608: a0 0a 40 f9 	ldr	x0, [x21, #16]
10000360c: 01 00 80 d2 	mov	x1, #0
100003610: 59 02 00 94 	bl	0x100003f74 <_strtod+0x100003f74>
100003614: 28 00 00 b0 	adrp	x8, 0x100008000 <_main+0xcc>
100003618: 00 19 00 fd 	str	d0, [x8, #48]
10000361c: a0 0e 40 f9 	ldr	x0, [x21, #24]
100003620: 01 00 80 d2 	mov	x1, #0
100003624: 54 02 00 94 	bl	0x100003f74 <_strtod+0x100003f74>
100003628: 28 00 00 b0 	adrp	x8, 0x100008000 <_main+0xe0>
10000362c: 00 1d 00 fd 	str	d0, [x8, #56]
100003630: 29 00 00 b0 	adrp	x9, 0x100008000 <_main+0xe8>
100003634: 1f 1f 00 71 	cmp	w24, #7
100003638: 81 00 00 54 	b.ne	0x100003648 <_main+0xec>
10000363c: a8 1a 40 f9 	ldr	x8, [x21, #48]
100003640: 08 01 40 39 	ldrb	w8, [x8]
100003644: 28 01 00 39 	strb	w8, [x9]
100003648: 68 0a 40 f9 	ldr	x8, [x19, #16]
10000364c: f4 12 40 f9 	ldr	x20, [x23, #32]
100003650: 1f 01 14 eb 	cmp	x8, x20
100003654: e0 0f 80 3d 	str	q0, [sp, #48]
100003658: 02 01 00 54 	b.hs	0x100003678 <_main+0x11c>
10000365c: 74 0a 00 f9 	str	x20, [x19, #16]
100003660: e8 12 00 f9 	str	x8, [x23, #32]
100003664: aa 26 42 a9 	ldp	x10, x9, [x21, #32]
100003668: 29 07 00 f9 	str	x9, [x25, #8]
10000366c: 4a 0f 00 f9 	str	x10, [x26, #24]
100003670: f7 03 08 aa 	mov	x23, x8
100003674: 03 00 00 14 	b	0x100003680 <_main+0x124>
100003678: f7 03 14 aa 	mov	x23, x20
10000367c: f4 03 08 aa 	mov	x20, x8
100003680: 95 06 00 91 	add	x21, x20, #1
100003684: f3 06 00 91 	add	x19, x23, #1
100003688: a8 7e 13 9b 	mul	x8, x21, x19
10000368c: 01 f1 7d d3 	lsl	x1, x8, #3
100003690: 20 00 80 52 	mov	w0, #1
100003694: 23 02 00 94 	bl	0x100003f20 <_strtod+0x100003f20>
100003698: 00 44 00 b4 	cbz	x0, 0x100003f18 <_main+0x9bc>
10000369c: 28 00 00 b0 	adrp	x8, 0x100008000 <_main+0x154>
1000036a0: 00 21 00 f9 	str	x0, [x8, #64]
1000036a4: e8 f2 7d d3 	lsl	x8, x23, #3
1000036a8: bf 0a 00 f1 	cmp	x21, #2
1000036ac: f1 0f c0 3d 	ldr	q17, [sp, #48]
1000036b0: 43 06 00 54 	b.lo	0x100003778 <_main+0x21c>
1000036b4: 9f 0e 00 f1 	cmp	x20, #3
1000036b8: 68 00 00 54 	b.hi	0x1000036c4 <_main+0x168>
1000036bc: 29 00 80 52 	mov	w9, #1
1000036c0: 24 00 00 14 	b	0x100003750 <_main+0x1f4>
1000036c4: 89 f6 7e 92 	and	x9, x20, #0xfffffffffffffffc
1000036c8: ea 03 09 cb 	neg	x10, x9
1000036cc: eb ea 7b d3 	lsl	x11, x23, #5
1000036d0: 6b 81 00 91 	add	x11, x11, #32
1000036d4: 0c 03 80 52 	mov	w12, #24
1000036d8: 0d 03 80 d2 	mov	x13, #24
1000036dc: ec 36 0c 9b 	madd	x12, x23, x12, x13
1000036e0: ed ee 7c d3 	lsl	x13, x23, #4
1000036e4: ad 41 00 91 	add	x13, x13, #16
1000036e8: 0e 21 00 91 	add	x14, x8, #8
1000036ec: 8f 00 80 52 	mov	w15, #4
1000036f0: f0 03 00 aa 	mov	x16, x0
1000036f4: f1 0d 00 d1 	sub	x17, x15, #3
1000036f8: e2 09 00 d1 	sub	x2, x15, #2
1000036fc: e1 05 00 d1 	sub	x1, x15, #1
100003700: 20 02 63 9e 	ucvtf	d0, x17
100003704: 41 00 63 9e 	ucvtf	d1, x2
100003708: 22 00 63 9e 	ucvtf	d2, x1
10000370c: e3 01 63 9e 	ucvtf	d3, x15
100003710: 20 0a 60 1e 	fmul	d0, d17, d0
100003714: 21 0a 61 1e 	fmul	d1, d17, d1
100003718: 22 0a 62 1e 	fmul	d2, d17, d2
10000371c: 23 0a 63 1e 	fmul	d3, d17, d3
100003720: 00 6a 2e fc 	str	d0, [x16, x14]
100003724: 01 6a 2d fc 	str	d1, [x16, x13]
100003728: 02 6a 2c fc 	str	d2, [x16, x12]
10000372c: 10 02 0b 8b 	add	x16, x16, x11
100003730: 03 02 00 fd 	str	d3, [x16]
100003734: ef 11 00 91 	add	x15, x15, #4
100003738: 51 01 0f 8b 	add	x17, x10, x15
10000373c: 3f 12 00 f1 	cmp	x17, #4
100003740: a1 fd ff 54 	b.ne	0x1000036f4 <_main+0x198>
100003744: 9f 02 09 eb 	cmp	x20, x9
100003748: 80 01 00 54 	b.eq	0x100003778 <_main+0x21c>
10000374c: 29 01 40 b2 	orr	x9, x9, #0x1
100003750: 2a 7d 13 9b 	mul	x10, x9, x19
100003754: 0a 0c 0a 8b 	add	x10, x0, x10, lsl #3
100003758: 0b 21 00 91 	add	x11, x8, #8
10000375c: 20 01 63 9e 	ucvtf	d0, x9
100003760: 20 0a 60 1e 	fmul	d0, d17, d0
100003764: 40 01 00 fd 	str	d0, [x10]
100003768: 29 05 00 91 	add	x9, x9, #1
10000376c: 4a 01 0b 8b 	add	x10, x10, x11
100003770: bf 02 09 eb 	cmp	x21, x9
100003774: 41 ff ff 54 	b.ne	0x10000375c <_main+0x200>
100003778: 7f 0a 00 f1 	cmp	x19, #2
10000377c: 63 05 00 54 	b.lo	0x100003828 <_main+0x2cc>
100003780: ff 1e 00 f1 	cmp	x23, #7
100003784: 68 00 00 54 	b.hi	0x100003790 <_main+0x234>
100003788: 29 00 80 52 	mov	w9, #1
10000378c: 21 00 00 14 	b	0x100003810 <_main+0x2b4>
100003790: e9 f2 7d 92 	and	x9, x23, #0xfffffffffffffff8
100003794: 0a 00 00 90 	adrp	x10, 0x100003000 <_main+0x238>
100003798: 40 e1 c3 3d 	ldr	q0, [x10, #3968]
10000379c: 0a a0 00 91 	add	x10, x0, #40
1000037a0: 4b 00 80 52 	mov	w11, #2
1000037a4: 61 0d 08 4e 	dup.2d	v1, x11
1000037a8: 8b 00 80 52 	mov	w11, #4
1000037ac: 62 0d 08 4e 	dup.2d	v2, x11
1000037b0: cb 00 80 52 	mov	w11, #6
1000037b4: 63 0d 08 4e 	dup.2d	v3, x11
1000037b8: 0b 01 80 52 	mov	w11, #8
1000037bc: 64 0d 08 4e 	dup.2d	v4, x11
1000037c0: eb 03 09 aa 	mov	x11, x9
1000037c4: 05 84 e1 4e 	add.2d	v5, v0, v1
1000037c8: 06 84 e2 4e 	add.2d	v6, v0, v2
1000037cc: 07 84 e3 4e 	add.2d	v7, v0, v3
1000037d0: 10 d8 61 6e 	ucvtf.2d	v16, v0
1000037d4: a5 d8 61 6e 	ucvtf.2d	v5, v5
1000037d8: c6 d8 61 6e 	ucvtf.2d	v6, v6
1000037dc: e7 d8 61 6e 	ucvtf.2d	v7, v7
1000037e0: 10 92 d1 4f 	fmul.2d	v16, v16, v17[0]
1000037e4: a5 90 d1 4f 	fmul.2d	v5, v5, v17[0]
1000037e8: c6 90 d1 4f 	fmul.2d	v6, v6, v17[0]
1000037ec: e7 90 d1 4f 	fmul.2d	v7, v7, v17[0]
1000037f0: 50 15 3f ad 	stp	q16, q5, [x10, #-32]
1000037f4: 46 1d 82 ac 	stp	q6, q7, [x10], #64
1000037f8: 00 84 e4 4e 	add.2d	v0, v0, v4
1000037fc: 6b 21 00 f1 	subs	x11, x11, #8
100003800: 21 fe ff 54 	b.ne	0x1000037c4 <_main+0x268>
100003804: ff 02 09 eb 	cmp	x23, x9
100003808: 00 01 00 54 	b.eq	0x100003828 <_main+0x2cc>
10000380c: 29 01 40 b2 	orr	x9, x9, #0x1
100003810: 20 01 63 9e 	ucvtf	d0, x9
100003814: 20 0a 60 1e 	fmul	d0, d17, d0
100003818: 00 78 29 fc 	str	d0, [x0, x9, lsl #3]
10000381c: 29 05 00 91 	add	x9, x9, #1
100003820: 7f 02 09 eb 	cmp	x19, x9
100003824: 61 ff ff 54 	b.ne	0x100003810 <_main+0x2b4>
100003828: f4 83 01 a9 	stp	x20, x0, [sp, #24]
10000382c: f8 17 00 b9 	str	w24, [sp, #20]
100003830: aa fe 4e d3 	lsr	x10, x21, #14
100003834: a9 36 40 f2 	ands	x9, x21, #0x3fff
100003838: 6c fe 4e d3 	lsr	x12, x19, #14
10000383c: 4a 05 8a 9a 	cinc	x10, x10, ne
100003840: 6b 36 40 f2 	ands	x11, x19, #0x3fff
100003844: 8c 05 8c 9a 	cinc	x12, x12, ne
100003848: 0e 00 88 52 	mov	w14, #16384
10000384c: bf 12 40 f1 	cmp	x21, #4, lsl #12        ; =16384
100003850: ad 32 8e 9a 	csel	x13, x21, x14, lo
100003854: 7f 12 40 f1 	cmp	x19, #4, lsl #12        ; =16384
100003858: f3 17 00 f9 	str	x19, [sp, #40]
10000385c: 6e 32 8e 9a 	csel	x14, x19, x14, lo
100003860: 4f 05 00 d1 	sub	x15, x10, #1
100003864: ec 33 00 f9 	str	x12, [sp, #96]
100003868: ec 01 0c ab 	adds	x12, x15, x12
10000386c: ec 2f 00 f9 	str	x12, [sp, #88]
100003870: c0 0b 00 54 	b.eq	0x1000039e8 <_main+0x48c>
100003874: 11 00 80 d2 	mov	x17, #0
100003878: ec 33 40 f9 	ldr	x12, [sp, #96]
10000387c: 80 05 00 d1 	sub	x0, x12, #1
100003880: 2c 00 00 b0 	adrp	x12, 0x100008000 <_main+0x338>
100003884: 81 05 40 f9 	ldr	x1, [x12, #8]
100003888: 2c 00 00 b0 	adrp	x12, 0x100008000 <_main+0x340>
10000388c: 82 0d 40 f9 	ldr	x2, [x12, #24]
100003890: 2c 00 00 b0 	adrp	x12, 0x100008000 <_main+0x348>
100003894: 80 15 40 fd 	ldr	d0, [x12, #40]
100003898: ec 13 40 f9 	ldr	x12, [sp, #32]
10000389c: 8c 21 00 d1 	sub	x12, x12, #8
1000038a0: ec 2b 00 f9 	str	x12, [sp, #80]
1000038a4: d0 f1 7d d3 	lsl	x16, x14, #3
1000038a8: 2c 00 00 b0 	adrp	x12, 0x100008000 <_main+0x360>
1000038ac: 81 19 40 fd 	ldr	d1, [x12, #48]
1000038b0: f0 27 00 f9 	str	x16, [sp, #72]
1000038b4: e4 03 10 cb 	neg	x4, x16
1000038b8: ec 17 40 f9 	ldr	x12, [sp, #40]
1000038bc: 85 f1 7d d3 	lsl	x5, x12, #3
1000038c0: 08 21 00 91 	add	x8, x8, #8
1000038c4: 46 04 00 d1 	sub	x6, x2, #1
1000038c8: 05 00 00 14 	b	0x1000038dc <_main+0x380>
1000038cc: 31 06 00 91 	add	x17, x17, #1
1000038d0: ec 2f 40 f9 	ldr	x12, [sp, #88]
1000038d4: 3f 02 0c eb 	cmp	x17, x12
1000038d8: 80 08 00 54 	b.eq	0x1000039e8 <_main+0x48c>
1000038dc: ec 33 40 f9 	ldr	x12, [sp, #96]
1000038e0: 22 02 0c eb 	subs	x2, x17, x12
1000038e4: e7 37 82 9a 	csinc	x7, xzr, x2, lo
1000038e8: 3f 02 0a eb 	cmp	x17, x10
1000038ec: 55 25 91 9a 	csinc	x21, x10, x17, hs
1000038f0: ff 00 15 eb 	cmp	x7, x21
1000038f4: c2 fe ff 54 	b.hs	0x1000038cc <_main+0x370>
1000038f8: 22 02 07 cb 	sub	x2, x17, x7
1000038fc: f0 b3 44 a9 	ldp	x16, x12, [sp, #72]
100003900: 16 32 02 9b 	madd	x22, x16, x2, x12
100003904: 04 00 00 14 	b	0x100003914 <_main+0x3b8>
100003908: d6 02 04 8b 	add	x22, x22, x4
10000390c: ff 00 15 eb 	cmp	x7, x21
100003910: e0 fd ff 54 	b.eq	0x1000038cc <_main+0x370>
100003914: ff 00 0f eb 	cmp	x7, x15
100003918: 24 09 40 fa 	ccmp	x9, #0, #4, eq
10000391c: fa 7c 0d 9b 	mul	x26, x7, x13
100003920: 42 03 09 8b 	add	x2, x26, x9
100003924: 23 02 07 cb 	sub	x3, x17, x7
100003928: e7 04 00 91 	add	x7, x7, #1
10000392c: f3 7c 0d 9b 	mul	x19, x7, x13
100003930: 5e 10 93 9a 	csel	x30, x2, x19, ne
100003934: 7f 00 00 eb 	cmp	x3, x0
100003938: 64 09 40 fa 	ccmp	x11, #0, #4, eq
10000393c: 74 7c 0e 9b 	mul	x20, x3, x14
100003940: 82 02 0b 8b 	add	x2, x20, x11
100003944: c3 01 14 8b 	add	x3, x14, x20
100003948: 5c 10 83 9a 	csel	x28, x2, x3, ne
10000394c: 5f 03 1e eb 	cmp	x26, x30
100003950: 82 32 5c fa 	ccmp	x20, x28, #2, lo
100003954: a2 fd ff 54 	b.hs	0x100003908 <_main+0x3ac>
100003958: 42 07 00 d1 	sub	x2, x26, #1
10000395c: b9 58 02 9b 	madd	x25, x5, x2, x22
100003960: b8 58 1a 9b 	madd	x24, x5, x26, x22
100003964: 06 00 00 14 	b	0x10000397c <_main+0x420>
100003968: 5a 07 00 91 	add	x26, x26, #1
10000396c: 39 03 08 8b 	add	x25, x25, x8
100003970: 18 03 08 8b 	add	x24, x24, x8
100003974: 5f 03 1e eb 	cmp	x26, x30
100003978: 80 fc ff 54 	b.eq	0x100003908 <_main+0x3ac>
10000397c: 7a ff ff b4 	cbz	x26, 0x100003968 <_main+0x40c>
100003980: 43 07 00 d1 	sub	x3, x26, #1
100003984: e2 03 18 aa 	mov	x2, x24
100003988: f3 03 19 aa 	mov	x19, x25
10000398c: fb 03 14 aa 	mov	x27, x20
100003990: 06 00 00 14 	b	0x1000039a8 <_main+0x44c>
100003994: 7b 07 00 91 	add	x27, x27, #1
100003998: 73 22 00 91 	add	x19, x19, #8
10000399c: 42 20 00 91 	add	x2, x2, #8
1000039a0: 7f 03 1c eb 	cmp	x27, x28
1000039a4: 22 fe ff 54 	b.hs	0x100003968 <_main+0x40c>
1000039a8: 7b ff ff b4 	cbz	x27, 0x100003994 <_main+0x438>
1000039ac: 30 68 63 38 	ldrb	w16, [x1, x3]
1000039b0: cc 68 7b 38 	ldrb	w12, [x6, x27]
1000039b4: 1f 02 0c 6b 	cmp	w16, w12
1000039b8: 02 0c 61 1e 	fcsel	d2, d0, d1, eq
1000039bc: 63 12 40 6d 	ldp	d3, d4, [x19]
1000039c0: 62 28 62 1e 	fadd	d2, d3, d2
1000039c4: 83 28 71 1e 	fadd	d3, d4, d17
1000039c8: 44 00 40 fd 	ldr	d4, [x2]
1000039cc: 24 2a 64 1e 	fadd	d4, d17, d4
1000039d0: 60 20 64 1e 	fcmp	d3, d4
1000039d4: 63 cc 64 1e 	fcsel	d3, d3, d4, gt
1000039d8: 40 20 63 1e 	fcmp	d2, d3
1000039dc: 42 cc 63 1e 	fcsel	d2, d2, d3, gt
1000039e0: 42 04 00 fd 	str	d2, [x2, #8]
1000039e4: ec ff ff 17 	b	0x100003994 <_main+0x438>
1000039e8: ff 37 00 f9 	str	xzr, [sp, #104]
1000039ec: f4 0f 40 f9 	ldr	x20, [sp, #24]
1000039f0: f3 17 40 f9 	ldr	x19, [sp, #40]
1000039f4: 76 02 14 8b 	add	x22, x19, x20
1000039f8: e0 03 16 aa 	mov	x0, x22
1000039fc: 21 00 80 52 	mov	w1, #1
100003a00: 48 01 00 94 	bl	0x100003f20 <_strtod+0x100003f20>
100003a04: a0 28 00 b4 	cbz	x0, 0x100003f18 <_main+0x9bc>
100003a08: f5 03 00 aa 	mov	x21, x0
100003a0c: e0 03 16 aa 	mov	x0, x22
100003a10: 21 00 80 52 	mov	w1, #1
100003a14: 43 01 00 94 	bl	0x100003f20 <_strtod+0x100003f20>
100003a18: 00 28 00 b4 	cbz	x0, 0x100003f18 <_main+0x9bc>
100003a1c: f6 03 00 aa 	mov	x22, x0
100003a20: 1a 00 80 d2 	mov	x26, #0
100003a24: 08 e4 00 2f 	movi	d8, #0000000000000000
100003a28: e5 0f c0 3d 	ldr	q5, [sp, #48]
100003a2c: 38 00 00 b0 	adrp	x24, 0x100008000 <_main+0x4e4>
100003a30: 2f 00 00 b0 	adrp	x15, 0x100008000 <_main+0x4e8>
100003a34: f0 13 40 f9 	ldr	x16, [sp, #32]
100003a38: 34 06 00 b4 	cbz	x20, 0x100003afc <_main+0x5a0>
100003a3c: 17 06 00 b4 	cbz	x23, 0x100003afc <_main+0x5a0>
100003a40: 1a 00 80 d2 	mov	x26, #0
100003a44: 08 07 40 f9 	ldr	x8, [x24, #8]
100003a48: e9 0d 40 f9 	ldr	x9, [x15, #24]
100003a4c: 2a 00 00 b0 	adrp	x10, 0x100008000 <_main+0x504>
100003a50: 40 15 40 fd 	ldr	d0, [x10, #40]
100003a54: 2a 00 00 b0 	adrp	x10, 0x100008000 <_main+0x50c>
100003a58: 41 19 40 fd 	ldr	d1, [x10, #48]
100003a5c: 8a 06 00 d1 	sub	x10, x20, #1
100003a60: 0b 69 6a 38 	ldrb	w11, [x8, x10]
100003a64: ec 06 00 d1 	sub	x12, x23, #1
100003a68: 2d 69 6c 38 	ldrb	w13, [x9, x12]
100003a6c: 7f 01 0d 6b 	cmp	w11, w13
100003a70: 02 0c 61 1e 	fcsel	d2, d0, d1, eq
100003a74: 8e 7e 13 9b 	mul	x14, x20, x19
100003a78: 0e 0e 0e 8b 	add	x14, x16, x14, lsl #3
100003a7c: c3 79 77 fc 	ldr	d3, [x14, x23, lsl #3]
100003a80: c4 79 6c fc 	ldr	d4, [x14, x12, lsl #3]
100003a84: 84 28 65 1e 	fadd	d4, d4, d5
100003a88: 60 20 64 1e 	fcmp	d3, d4
100003a8c: a1 00 00 54 	b.ne	0x100003aa0 <_main+0x544>
100003a90: ab 05 80 52 	mov	w11, #45
100003a94: a2 40 60 1e 	fmov	d2, d5
100003a98: ea 03 14 aa 	mov	x10, x20
100003a9c: 0f 00 00 14 	b	0x100003ad8 <_main+0x57c>
100003aa0: 4e 7d 13 9b 	mul	x14, x10, x19
100003aa4: 0e 0e 0e 8b 	add	x14, x16, x14, lsl #3
100003aa8: c4 79 77 fc 	ldr	d4, [x14, x23, lsl #3]
100003aac: a4 28 64 1e 	fadd	d4, d5, d4
100003ab0: 60 20 64 1e 	fcmp	d3, d4
100003ab4: a1 00 00 54 	b.ne	0x100003ac8 <_main+0x56c>
100003ab8: ad 05 80 52 	mov	w13, #45
100003abc: a2 40 60 1e 	fmov	d2, d5
100003ac0: ec 03 17 aa 	mov	x12, x23
100003ac4: 05 00 00 14 	b	0x100003ad8 <_main+0x57c>
100003ac8: c4 79 6c fc 	ldr	d4, [x14, x12, lsl #3]
100003acc: 44 28 64 1e 	fadd	d4, d2, d4
100003ad0: 60 20 64 1e 	fcmp	d3, d4
100003ad4: e1 00 00 54 	b.ne	0x100003af0 <_main+0x594>
100003ad8: ab 6a 3a 38 	strb	w11, [x21, x26]
100003adc: cd 6a 3a 38 	strb	w13, [x22, x26]
100003ae0: 48 28 68 1e 	fadd	d8, d2, d8
100003ae4: e8 37 00 fd 	str	d8, [sp, #104]
100003ae8: f7 03 0c aa 	mov	x23, x12
100003aec: f4 03 0a aa 	mov	x20, x10
100003af0: 5a 07 00 91 	add	x26, x26, #1
100003af4: 54 00 00 b4 	cbz	x20, 0x100003afc <_main+0x5a0>
100003af8: 37 fb ff b5 	cbnz	x23, 0x100003a5c <_main+0x500>
100003afc: f7 01 00 b4 	cbz	x23, 0x100003b38 <_main+0x5dc>
100003b00: f3 0d 40 f9 	ldr	x19, [x15, #24]
100003b04: a0 02 1a 8b 	add	x0, x21, x26
100003b08: a1 05 80 52 	mov	w1, #45
100003b0c: e2 03 17 aa 	mov	x2, x23
100003b10: 0d 01 00 94 	bl	0x100003f44 <_strtod+0x100003f44>
100003b14: e0 0f c0 3d 	ldr	q0, [sp, #48]
100003b18: 68 06 00 d1 	sub	x8, x19, #1
100003b1c: 09 69 77 38 	ldrb	w9, [x8, x23]
100003b20: c9 6a 3a 38 	strb	w9, [x22, x26]
100003b24: 08 28 68 1e 	fadd	d8, d0, d8
100003b28: e8 37 00 fd 	str	d8, [sp, #104]
100003b2c: 5a 07 00 91 	add	x26, x26, #1
100003b30: f7 06 00 f1 	subs	x23, x23, #1
100003b34: 41 ff ff 54 	b.ne	0x100003b1c <_main+0x5c0>
100003b38: 54 0b 00 b4 	cbz	x20, 0x100003ca0 <_main+0x744>
100003b3c: 17 07 40 f9 	ldr	x23, [x24, #8]
100003b40: c0 02 1a 8b 	add	x0, x22, x26
100003b44: a1 05 80 52 	mov	w1, #45
100003b48: e2 03 14 aa 	mov	x2, x20
100003b4c: fe 00 00 94 	bl	0x100003f44 <_strtod+0x100003f44>
100003b50: 9f 7e 00 f1 	cmp	x20, #31
100003b54: 88 00 00 54 	b.hi	0x100003b64 <_main+0x608>
100003b58: e8 03 14 aa 	mov	x8, x20
100003b5c: e4 0f c0 3d 	ldr	q4, [sp, #48]
100003b60: 48 00 00 14 	b	0x100003c80 <_main+0x724>
100003b64: e9 a3 01 91 	add	x9, sp, #104
100003b68: 2a 21 00 91 	add	x10, x9, #8
100003b6c: eb 02 14 8b 	add	x11, x23, x20
100003b70: 28 00 00 b0 	adrp	x8, 0x100008000 <_main+0x628>
100003b74: 08 e1 00 91 	add	x8, x8, #56
100003b78: 0c 21 00 91 	add	x12, x8, #8
100003b7c: 3f 01 0c eb 	cmp	x9, x12
100003b80: 40 31 48 fa 	ccmp	x10, x8, #0, lo
100003b84: e8 97 9f 1a 	cset	w8, hi
100003b88: ff 02 0a eb 	cmp	x23, x10
100003b8c: 60 31 49 fa 	ccmp	x11, x9, #0, lo
100003b90: e4 0f c0 3d 	ldr	q4, [sp, #48]
100003b94: 48 07 00 54 	b.hi	0x100003c7c <_main+0x720>
100003b98: 28 07 00 37 	tbnz	w8, #0, 0x100003c7c <_main+0x720>
100003b9c: 89 ea 7b 92 	and	x9, x20, #0xffffffffffffffe0
100003ba0: 88 12 40 92 	and	x8, x20, #0x1f
100003ba4: 80 04 08 4e 	dup.2d	v0, v4[0]
100003ba8: 8a 02 17 8b 	add	x10, x20, x23
100003bac: 4a 41 00 d1 	sub	x10, x10, #16
100003bb0: 4b 03 15 8b 	add	x11, x26, x21
100003bb4: 6b 41 00 91 	add	x11, x11, #16
100003bb8: 01 04 18 5e 	mov	d1, v0[1]
100003bbc: ec 03 09 aa 	mov	x12, x9
100003bc0: 43 89 7f ad 	ldp	q3, q2, [x10, #-16]
100003bc4: 42 08 20 4e 	rev64.16b	v2, v2
100003bc8: 42 40 02 6e 	ext.16b	v2, v2, v2, #8
100003bcc: 63 08 20 4e 	rev64.16b	v3, v3
100003bd0: 63 40 03 6e 	ext.16b	v3, v3, v3, #8
100003bd4: 62 8d 3f ad 	stp	q2, q3, [x11, #-16]
100003bd8: 02 29 60 1e 	fadd	d2, d8, d0
100003bdc: 42 28 61 1e 	fadd	d2, d2, d1
100003be0: 42 28 60 1e 	fadd	d2, d2, d0
100003be4: 42 28 61 1e 	fadd	d2, d2, d1
100003be8: 42 28 60 1e 	fadd	d2, d2, d0
100003bec: 42 28 61 1e 	fadd	d2, d2, d1
100003bf0: 42 28 60 1e 	fadd	d2, d2, d0
100003bf4: 42 28 61 1e 	fadd	d2, d2, d1
100003bf8: 42 28 60 1e 	fadd	d2, d2, d0
100003bfc: 42 28 61 1e 	fadd	d2, d2, d1
100003c00: 42 28 60 1e 	fadd	d2, d2, d0
100003c04: 42 28 61 1e 	fadd	d2, d2, d1
100003c08: 42 28 60 1e 	fadd	d2, d2, d0
100003c0c: 42 28 61 1e 	fadd	d2, d2, d1
100003c10: 42 28 60 1e 	fadd	d2, d2, d0
100003c14: 42 28 61 1e 	fadd	d2, d2, d1
100003c18: 42 28 60 1e 	fadd	d2, d2, d0
100003c1c: 42 28 61 1e 	fadd	d2, d2, d1
100003c20: 42 28 60 1e 	fadd	d2, d2, d0
100003c24: 42 28 61 1e 	fadd	d2, d2, d1
100003c28: 42 28 60 1e 	fadd	d2, d2, d0
100003c2c: 42 28 61 1e 	fadd	d2, d2, d1
100003c30: 42 28 60 1e 	fadd	d2, d2, d0
100003c34: 42 28 61 1e 	fadd	d2, d2, d1
100003c38: 42 28 60 1e 	fadd	d2, d2, d0
100003c3c: 42 28 61 1e 	fadd	d2, d2, d1
100003c40: 42 28 60 1e 	fadd	d2, d2, d0
100003c44: 42 28 61 1e 	fadd	d2, d2, d1
100003c48: 42 28 60 1e 	fadd	d2, d2, d0
100003c4c: 42 28 61 1e 	fadd	d2, d2, d1
100003c50: 42 28 60 1e 	fadd	d2, d2, d0
100003c54: 48 28 61 1e 	fadd	d8, d2, d1
100003c58: 4a 81 00 d1 	sub	x10, x10, #32
100003c5c: 6b 81 00 91 	add	x11, x11, #32
100003c60: 8c 81 00 d1 	sub	x12, x12, #32
100003c64: ec fa ff b5 	cbnz	x12, 0x100003bc0 <_main+0x664>
100003c68: 5a 03 09 8b 	add	x26, x26, x9
100003c6c: e8 37 00 fd 	str	d8, [sp, #104]
100003c70: 9f 02 09 eb 	cmp	x20, x9
100003c74: 61 00 00 54 	b.ne	0x100003c80 <_main+0x724>
100003c78: 0a 00 00 14 	b	0x100003ca0 <_main+0x744>
100003c7c: e8 03 14 aa 	mov	x8, x20
100003c80: e9 06 00 d1 	sub	x9, x23, #1
100003c84: 2a 69 68 38 	ldrb	w10, [x9, x8]
100003c88: aa 6a 3a 38 	strb	w10, [x21, x26]
100003c8c: 88 28 68 1e 	fadd	d8, d4, d8
100003c90: e8 37 00 fd 	str	d8, [sp, #104]
100003c94: 5a 07 00 91 	add	x26, x26, #1
100003c98: 08 05 00 f1 	subs	x8, x8, #1
100003c9c: 41 ff ff 54 	b.ne	0x100003c84 <_main+0x728>
100003ca0: 58 07 00 91 	add	x24, x26, #1
100003ca4: e0 03 18 aa 	mov	x0, x24
100003ca8: 21 00 80 52 	mov	w1, #1
100003cac: 9d 00 00 94 	bl	0x100003f20 <_strtod+0x100003f20>
100003cb0: 40 13 00 b4 	cbz	x0, 0x100003f18 <_main+0x9bc>
100003cb4: f4 03 00 aa 	mov	x20, x0
100003cb8: e0 03 18 aa 	mov	x0, x24
100003cbc: 21 00 80 52 	mov	w1, #1
100003cc0: 98 00 00 94 	bl	0x100003f20 <_strtod+0x100003f20>
100003cc4: a0 12 00 b4 	cbz	x0, 0x100003f18 <_main+0x9bc>
100003cc8: f7 03 00 aa 	mov	x23, x0
100003ccc: e0 03 18 aa 	mov	x0, x24
100003cd0: 21 00 80 52 	mov	w1, #1
100003cd4: 93 00 00 94 	bl	0x100003f20 <_strtod+0x100003f20>
100003cd8: 00 12 00 b4 	cbz	x0, 0x100003f18 <_main+0x9bc>
100003cdc: f8 03 00 aa 	mov	x24, x0
100003ce0: ba 0c 00 b4 	cbz	x26, 0x100003e74 <_main+0x918>
100003ce4: 28 00 00 b0 	adrp	x8, 0x100008000 <_main+0x79c>
100003ce8: 08 01 40 39 	ldrb	w8, [x8]
100003cec: 5f 23 00 f1 	cmp	x26, #8
100003cf0: 62 00 00 54 	b.hs	0x100003cfc <_main+0x7a0>
100003cf4: 09 00 80 d2 	mov	x9, #0
100003cf8: 4a 00 00 14 	b	0x100003e20 <_main+0x8c4>
100003cfc: 5f 83 00 f1 	cmp	x26, #32
100003d00: 62 00 00 54 	b.hs	0x100003d0c <_main+0x7b0>
100003d04: 09 00 80 d2 	mov	x9, #0
100003d08: 27 00 00 14 	b	0x100003da4 <_main+0x848>
100003d0c: 49 eb 7b 92 	and	x9, x26, #0xffffffffffffffe0
100003d10: 00 0d 01 4e 	dup.16b	v0, w8
100003d14: 4b 43 00 d1 	sub	x11, x26, #16
100003d18: ca 02 0b 8b 	add	x10, x22, x11
100003d1c: ab 02 0b 8b 	add	x11, x21, x11
100003d20: 0c 43 00 91 	add	x12, x24, #16
100003d24: 8d 42 00 91 	add	x13, x20, #16
100003d28: ee 42 00 91 	add	x14, x23, #16
100003d2c: 01 e4 01 4f 	movi.16b	v1, #32
100003d30: ef 03 09 aa 	mov	x15, x9
100003d34: 63 89 7f ad 	ldp	q3, q2, [x11, #-16]
100003d38: 42 08 20 4e 	rev64.16b	v2, v2
100003d3c: 42 40 02 6e 	ext.16b	v2, v2, v2, #8
100003d40: 63 08 20 4e 	rev64.16b	v3, v3
100003d44: 63 40 03 6e 	ext.16b	v3, v3, v3, #8
100003d48: a2 8d 3f ad 	stp	q2, q3, [x13, #-16]
100003d4c: 45 91 7f ad 	ldp	q5, q4, [x10, #-16]
100003d50: 84 08 20 4e 	rev64.16b	v4, v4
100003d54: 84 40 04 6e 	ext.16b	v4, v4, v4, #8
100003d58: a5 08 20 4e 	rev64.16b	v5, v5
100003d5c: a5 40 05 6e 	ext.16b	v5, v5, v5, #8
100003d60: c4 95 3f ad 	stp	q4, q5, [x14, #-16]
100003d64: 42 8c 24 6e 	cmeq.16b	v2, v2, v4
100003d68: 63 8c 25 6e 	cmeq.16b	v3, v3, v5
100003d6c: 02 1c 61 6e 	bsl.16b	v2, v0, v1
100003d70: 03 1c 61 6e 	bsl.16b	v3, v0, v1
100003d74: 4a 81 00 d1 	sub	x10, x10, #32
100003d78: 6b 81 00 d1 	sub	x11, x11, #32
100003d7c: 82 8d 3f ad 	stp	q2, q3, [x12, #-16]
100003d80: 8c 81 00 91 	add	x12, x12, #32
100003d84: ad 81 00 91 	add	x13, x13, #32
100003d88: ce 81 00 91 	add	x14, x14, #32
100003d8c: ef 81 00 d1 	sub	x15, x15, #32
100003d90: 2f fd ff b5 	cbnz	x15, 0x100003d34 <_main+0x7d8>
100003d94: 5f 03 09 eb 	cmp	x26, x9
100003d98: e0 06 00 54 	b.eq	0x100003e74 <_main+0x918>
100003d9c: 5f 07 7d f2 	tst	x26, #0x18
100003da0: 00 04 00 54 	b.eq	0x100003e20 <_main+0x8c4>
100003da4: 4a f3 7d 92 	and	x10, x26, #0xfffffffffffffff8
100003da8: 00 0d 01 0e 	dup.8b	v0, w8
100003dac: eb 00 80 92 	mov	x11, #-8
100003db0: 6c 01 09 cb 	sub	x12, x11, x9
100003db4: cb 02 0c 8b 	add	x11, x22, x12
100003db8: ac 02 0c 8b 	add	x12, x21, x12
100003dbc: 01 e4 01 0f 	movi.8b	v1, #32
100003dc0: ed 03 0a aa 	mov	x13, x10
100003dc4: ee 03 18 aa 	mov	x14, x24
100003dc8: ef 03 17 aa 	mov	x15, x23
100003dcc: f0 03 14 aa 	mov	x16, x20
100003dd0: 82 69 7a fc 	ldr	d2, [x12, x26]
100003dd4: 42 08 20 0e 	rev64.8b	v2, v2
100003dd8: 02 6a 29 fc 	str	d2, [x16, x9]
100003ddc: 63 69 7a fc 	ldr	d3, [x11, x26]
100003de0: 63 08 20 0e 	rev64.8b	v3, v3
100003de4: e3 69 29 fc 	str	d3, [x15, x9]
100003de8: 42 8c 23 2e 	cmeq.8b	v2, v2, v3
100003dec: 02 1c 61 2e 	bsl.8b	v2, v0, v1
100003df0: c2 69 29 fc 	str	d2, [x14, x9]
100003df4: 6b 21 00 d1 	sub	x11, x11, #8
100003df8: 8c 21 00 d1 	sub	x12, x12, #8
100003dfc: 10 22 00 91 	add	x16, x16, #8
100003e00: ef 21 00 91 	add	x15, x15, #8
100003e04: ce 21 00 91 	add	x14, x14, #8
100003e08: ad 21 00 d1 	sub	x13, x13, #8
100003e0c: 3f 01 0d eb 	cmp	x9, x13
100003e10: 01 fe ff 54 	b.ne	0x100003dd0 <_main+0x874>
100003e14: e9 03 0a aa 	mov	x9, x10
100003e18: 5f 03 0a eb 	cmp	x26, x10
100003e1c: c0 02 00 54 	b.eq	0x100003e74 <_main+0x918>
100003e20: eb 03 29 aa 	mvn	x11, x9
100003e24: ca 02 0b 8b 	add	x10, x22, x11
100003e28: ab 02 0b 8b 	add	x11, x21, x11
100003e2c: 0c 04 80 52 	mov	w12, #32
100003e30: ed 03 14 aa 	mov	x13, x20
100003e34: ee 03 17 aa 	mov	x14, x23
100003e38: ef 03 18 aa 	mov	x15, x24
100003e3c: f0 03 1a aa 	mov	x16, x26
100003e40: 71 69 70 38 	ldrb	w17, [x11, x16]
100003e44: b1 69 29 38 	strb	w17, [x13, x9]
100003e48: 40 69 70 38 	ldrb	w0, [x10, x16]
100003e4c: c0 69 29 38 	strb	w0, [x14, x9]
100003e50: 3f 02 00 6b 	cmp	w17, w0
100003e54: 11 01 8c 1a 	csel	w17, w8, w12, eq
100003e58: f1 69 29 38 	strb	w17, [x15, x9]
100003e5c: 10 06 00 d1 	sub	x16, x16, #1
100003e60: ef 05 00 91 	add	x15, x15, #1
100003e64: ce 05 00 91 	add	x14, x14, #1
100003e68: ad 05 00 91 	add	x13, x13, #1
100003e6c: 3f 01 10 eb 	cmp	x9, x16
100003e70: 81 fe ff 54 	b.ne	0x100003e40 <_main+0x8e4>
100003e74: e0 03 15 aa 	mov	x0, x21
100003e78: 30 00 00 94 	bl	0x100003f38 <_strtod+0x100003f38>
100003e7c: e0 03 16 aa 	mov	x0, x22
100003e80: 2e 00 00 94 	bl	0x100003f38 <_strtod+0x100003f38>
100003e84: fa 03 00 f9 	str	x26, [sp]
100003e88: 00 00 00 90 	adrp	x0, 0x100003000 <_main+0x92c>
100003e8c: 00 40 3e 91 	add	x0, x0, #3984
100003e90: 30 00 00 94 	bl	0x100003f50 <_strtod+0x100003f50>
100003e94: e0 37 40 fd 	ldr	d0, [sp, #104]
100003e98: e0 03 00 fd 	str	d0, [sp]
100003e9c: 00 00 00 90 	adrp	x0, 0x100003000 <_main+0x940>
100003ea0: 00 54 3e 91 	add	x0, x0, #3989
100003ea4: 2b 00 00 94 	bl	0x100003f50 <_strtod+0x100003f50>
100003ea8: e0 03 14 aa 	mov	x0, x20
100003eac: 2c 00 00 94 	bl	0x100003f5c <_strtod+0x100003f5c>
100003eb0: e8 17 40 b9 	ldr	w8, [sp, #20]
100003eb4: 1f 1d 00 71 	cmp	w8, #7
100003eb8: 61 00 00 54 	b.ne	0x100003ec4 <_main+0x968>
100003ebc: e0 03 18 aa 	mov	x0, x24
100003ec0: 27 00 00 94 	bl	0x100003f5c <_strtod+0x100003f5c>
100003ec4: e0 03 17 aa 	mov	x0, x23
100003ec8: 25 00 00 94 	bl	0x100003f5c <_strtod+0x100003f5c>
100003ecc: 28 00 00 b0 	adrp	x8, 0x100008000 <_main+0x984>
100003ed0: 00 21 40 f9 	ldr	x0, [x8, #64]
100003ed4: 19 00 00 94 	bl	0x100003f38 <_strtod+0x100003f38>
100003ed8: e0 03 14 aa 	mov	x0, x20
100003edc: 17 00 00 94 	bl	0x100003f38 <_strtod+0x100003f38>
100003ee0: e0 03 17 aa 	mov	x0, x23
100003ee4: 15 00 00 94 	bl	0x100003f38 <_strtod+0x100003f38>
100003ee8: e0 03 18 aa 	mov	x0, x24
100003eec: 13 00 00 94 	bl	0x100003f38 <_strtod+0x100003f38>
100003ef0: 00 00 80 52 	mov	w0, #0
100003ef4: fd 7b 4d a9 	ldp	x29, x30, [sp, #208]
100003ef8: f4 4f 4c a9 	ldp	x20, x19, [sp, #192]
100003efc: f6 57 4b a9 	ldp	x22, x21, [sp, #176]
100003f00: f8 5f 4a a9 	ldp	x24, x23, [sp, #160]
100003f04: fa 67 49 a9 	ldp	x26, x25, [sp, #144]
100003f08: fc 6f 48 a9 	ldp	x28, x27, [sp, #128]
100003f0c: e9 23 47 6d 	ldp	d9, d8, [sp, #112]
100003f10: ff 83 03 91 	add	sp, sp, #224
100003f14: c0 03 5f d6 	ret
100003f18: 20 00 80 52 	mov	w0, #1
100003f1c: 04 00 00 94 	bl	0x100003f2c <_strtod+0x100003f2c>

Disassembly of section __TEXT,__stubs:

0000000100003f20 <__stubs>:
100003f20: 10 00 00 b0 	adrp	x16, 0x100004000 <__stubs+0x4>
100003f24: 10 02 40 f9 	ldr	x16, [x16]
100003f28: 00 02 1f d6 	br	x16
100003f2c: 10 00 00 b0 	adrp	x16, 0x100004000 <__stubs+0x10>
100003f30: 10 06 40 f9 	ldr	x16, [x16, #8]
100003f34: 00 02 1f d6 	br	x16
100003f38: 10 00 00 b0 	adrp	x16, 0x100004000 <__stubs+0x1c>
100003f3c: 10 0a 40 f9 	ldr	x16, [x16, #16]
100003f40: 00 02 1f d6 	br	x16
100003f44: 10 00 00 b0 	adrp	x16, 0x100004000 <__stubs+0x28>
100003f48: 10 0e 40 f9 	ldr	x16, [x16, #24]
100003f4c: 00 02 1f d6 	br	x16
100003f50: 10 00 00 b0 	adrp	x16, 0x100004000 <__stubs+0x34>
100003f54: 10 12 40 f9 	ldr	x16, [x16, #32]
100003f58: 00 02 1f d6 	br	x16
100003f5c: 10 00 00 b0 	adrp	x16, 0x100004000 <__stubs+0x40>
100003f60: 10 16 40 f9 	ldr	x16, [x16, #40]
100003f64: 00 02 1f d6 	br	x16
100003f68: 10 00 00 b0 	adrp	x16, 0x100004000 <__stubs+0x4c>
100003f6c: 10 1a 40 f9 	ldr	x16, [x16, #48]
100003f70: 00 02 1f d6 	br	x16
100003f74: 10 00 00 b0 	adrp	x16, 0x100004000 <__stubs+0x58>
100003f78: 10 1e 40 f9 	ldr	x16, [x16, #56]
100003f7c: 00 02 1f d6 	br	x16
